; Function Attrs: nounwind uwtable
define noalias noundef ptr @Gia_ManProcessOutputs(ptr noundef readonly captures(none) %0, ptr noundef readonly captures(none) %1, ptr noundef captures(none) %2) local_unnamed_addr #0 {
  %4 = getelementptr i8, ptr %0, i64 4
  %.val = load i32, ptr %4, align 4, !tbaa !3
  %5 = tail call noalias dereferenceable_or_null(16) ptr @malloc(i64 noundef 16) #14
  %6 = add i32 %.val, -1
  %or.cond.i = icmp ult i32 %6, 15
  %spec.store.select.i = select i1 %or.cond.i, i32 16, i32 %.val
  %7 = getelementptr inbounds nuw i8, ptr %5, i64 4
  store i32 0, ptr %7, align 4, !tbaa !9
  store i32 %spec.store.select.i, ptr %5, align 8, !tbaa !12
  %.not.i = icmp eq i32 %spec.store.select.i, 0
  br i1 %.not.i, label %Vec_IntAlloc.exit, label %8

8:                                                ; preds = %3
  %9 = sext i32 %spec.store.select.i to i64
  %10 = shl nsw i64 %9, 2
  %11 = tail call noalias ptr @malloc(i64 noundef %10) #14
  br label %Vec_IntAlloc.exit

Vec_IntAlloc.exit:                                ; preds = %3, %8
  %12 = phi ptr [ %11, %8 ], [ null, %3 ]
  %13 = getelementptr inbounds nuw i8, ptr %5, i64 8
  store ptr %12, ptr %13, align 8, !tbaa !13
  %14 = getelementptr i8, ptr %2, i64 4
  %.val2230 = load i32, ptr %14, align 4, !tbaa !9
  %15 = icmp sgt i32 %.val2230, 0
  br i1 %15, label %.lr.ph, label %.critedge

.lr.ph:                                           ; preds = %Vec_IntAlloc.exit
  %16 = getelementptr i8, ptr %2, i64 8
  %17 = getelementptr i8, ptr %0, i64 8
  %18 = getelementptr i8, ptr %1, i64 8
  br label %19

19:                                               ; preds = %.lr.ph, %51
  %.val2236 = phi i32 [ %.val2230, %.lr.ph ], [ %.val22, %51 ]
  %20 = phi ptr [ %12, %.lr.ph ], [ %.pre.i34, %51 ]
  %indvars.iv = phi i64 [ 0, %.lr.ph ], [ %indvars.iv.next, %51 ]
  %.val25 = load ptr, ptr %16, align 8, !tbaa !13
  %21 = getelementptr inbounds nuw i32, ptr %.val25, i64 %indvars.iv
  %22 = load i32, ptr %21, align 4, !tbaa !14
  %.val26 = load ptr, ptr %17, align 8, !tbaa !15
  %23 = getelementptr inbounds nuw ptr, ptr %.val26, i64 %indvars.iv
  %24 = load ptr, ptr %23, align 8, !tbaa !16
  %.not = icmp eq ptr %24, null
  br i1 %.not, label %28, label %25

25:                                               ; preds = %19
  store ptr null, ptr %23, align 8, !tbaa !16
  %.val28 = load ptr, ptr %18, align 8, !tbaa !15
  %26 = sext i32 %22 to i64
  %27 = getelementptr inbounds ptr, ptr %.val28, i64 %26
  store ptr %24, ptr %27, align 8, !tbaa !16
  br label %51

28:                                               ; preds = %19
  %.val23 = load i32, ptr %7, align 4, !tbaa !9
  %29 = sext i32 %.val23 to i64
  %30 = getelementptr inbounds i32, ptr %.val25, i64 %29
  store i32 %22, ptr %30, align 4, !tbaa !14
  %31 = load i32, ptr %5, align 8, !tbaa !12
  %32 = icmp eq i32 %.val23, %31
  br i1 %32, label %33, label %Vec_IntPush.exit

33:                                               ; preds = %28
  %34 = icmp slt i32 %.val23, 16
  br i1 %34, label %35, label %40

35:                                               ; preds = %33
  %.not9.i.i = icmp eq ptr %20, null
  br i1 %.not9.i.i, label %38, label %36

36:                                               ; preds = %35
  %37 = tail call dereferenceable_or_null(64) ptr @realloc(ptr noundef nonnull %20, i64 noundef 64) #15
  br label %Vec_IntPush.exit.sink.split

38:                                               ; preds = %35
  %39 = tail call noalias dereferenceable_or_null(64) ptr @malloc(i64 noundef 64) #14
  br label %Vec_IntPush.exit.sink.split

40:                                               ; preds = %33
  %41 = shl nuw nsw i32 %.val23, 1
  %.not9.i9.i = icmp eq ptr %20, null
  %42 = zext nneg i32 %41 to i64
  %43 = shl nuw nsw i64 %42, 2
  br i1 %.not9.i9.i, label %46, label %44

44:                                               ; preds = %40
  %45 = tail call ptr @realloc(ptr noundef nonnull %20, i64 noundef %43) #15
  br label %Vec_IntPush.exit.sink.split

46:                                               ; preds = %40
  %47 = tail call noalias ptr @malloc(i64 noundef %43) #14
  br label %Vec_IntPush.exit.sink.split

Vec_IntPush.exit.sink.split:                      ; preds = %44, %46, %36, %38
  %.sink39 = phi ptr [ %37, %36 ], [ %39, %38 ], [ %45, %44 ], [ %47, %46 ]
  %.sink = phi i32 [ 16, %36 ], [ 16, %38 ], [ %41, %44 ], [ %41, %46 ]
  store ptr %.sink39, ptr %13, align 8, !tbaa !13
  store i32 %.sink, ptr %5, align 8, !tbaa !12
  br label %Vec_IntPush.exit

Vec_IntPush.exit:                                 ; preds = %Vec_IntPush.exit.sink.split, %28
  %.pre.i35 = phi ptr [ %20, %28 ], [ %.sink39, %Vec_IntPush.exit.sink.split ]
  %48 = add nsw i32 %.val23, 1
  store i32 %48, ptr %7, align 4, !tbaa !9
  %49 = getelementptr inbounds i32, ptr %.pre.i35, i64 %29
  %50 = trunc nuw nsw i64 %indvars.iv to i32
  store i32 %50, ptr %49, align 4, !tbaa !14
  %.val22.pre = load i32, ptr %14, align 4, !tbaa !9
  br label %51

51:                                               ; preds = %25, %Vec_IntPush.exit
  %.val22 = phi i32 [ %.val2236, %25 ], [ %.val22.pre, %Vec_IntPush.exit ]
  %.pre.i34 = phi ptr [ %20, %25 ], [ %.pre.i35, %Vec_IntPush.exit ]
  %indvars.iv.next = add nuw nsw i64 %indvars.iv, 1
  %52 = sext i32 %.val22 to i64
  %53 = icmp slt i64 %indvars.iv.next, %52
  br i1 %53, label %19, label %.critedge.loopexit, !llvm.loop !17

.critedge.loopexit:                               ; preds = %51
  %.val24.pre = load i32, ptr %7, align 4, !tbaa !9
  br label %.critedge

.critedge:                                        ; preds = %.critedge.loopexit, %Vec_IntAlloc.exit
  %.val24 = phi i32 [ %.val24.pre, %.critedge.loopexit ], [ 0, %Vec_IntAlloc.exit ]
  store i32 %.val24, ptr %14, align 4, !tbaa !9
  ret ptr %5
}